; Function Attrs: mustprogress nounwind uwtable
define void @_ZN4LIEF2PE18ResourceDialogItemD2Ev(ptr noundef nonnull align 8 dereferenceable(106) %0) unnamed_addr #5 align 2 personality ptr @__gxx_personality_v0 {
  store ptr getelementptr inbounds ({ [7 x ptr] }, ptr @_ZTVN4LIEF2PE18ResourceDialogItemE, i64 0, i32 0, i64 2), ptr %0, align 8
  %2 = getelementptr inbounds i8, ptr %0, i64 72
  %3 = load ptr, ptr %2, align 8
  %4 = getelementptr inbounds i8, ptr %0, i64 88
  %5 = icmp eq ptr %3, %4
  br i1 %5, label %_ZNKSt7__cxx1112basic_stringIDsSt11char_traitsIDsESaIDsEE11_M_is_localEv.exit.thread.i.i, label %_ZNKSt7__cxx1112basic_stringIDsSt11char_traitsIDsESaIDsEE11_M_is_localEv.exit.i.i

_ZNKSt7__cxx1112basic_stringIDsSt11char_traitsIDsESaIDsEE11_M_is_localEv.exit.thread.i.i: ; preds = %1
  %6 = getelementptr inbounds i8, ptr %0, i64 80
  %7 = load i64, ptr %6, align 8
  %8 = icmp ult i64 %7, 8
  tail call void @llvm.assume(i1 %8)
  br label %_ZNSt7__cxx1112basic_stringIDsSt11char_traitsIDsESaIDsEED2Ev.exit

_ZNKSt7__cxx1112basic_stringIDsSt11char_traitsIDsESaIDsEE11_M_is_localEv.exit.i.i: ; preds = %1
  tail call void @_ZdlPv(ptr noundef %3) #19
  br label %_ZNSt7__cxx1112basic_stringIDsSt11char_traitsIDsESaIDsEED2Ev.exit

_ZNSt7__cxx1112basic_stringIDsSt11char_traitsIDsESaIDsEED2Ev.exit: ; preds = %_ZNKSt7__cxx1112basic_stringIDsSt11char_traitsIDsESaIDsEE11_M_is_localEv.exit.thread.i.i, %_ZNKSt7__cxx1112basic_stringIDsSt11char_traitsIDsESaIDsEE11_M_is_localEv.exit.i.i
  %9 = getelementptr inbounds i8, ptr %0, i64 40
  %10 = load ptr, ptr %9, align 8
  %11 = getelementptr inbounds i8, ptr %0, i64 56
  %12 = icmp eq ptr %10, %11
  br i1 %12, label %_ZNKSt7__cxx1112basic_stringIDsSt11char_traitsIDsESaIDsEE11_M_is_localEv.exit.thread.i.i2, label %_ZNKSt7__cxx1112basic_stringIDsSt11char_traitsIDsESaIDsEE11_M_is_localEv.exit.i.i1

_ZNKSt7__cxx1112basic_stringIDsSt11char_traitsIDsESaIDsEE11_M_is_localEv.exit.thread.i.i2: ; preds = %_ZNSt7__cxx1112basic_stringIDsSt11char_traitsIDsESaIDsEED2Ev.exit
  %13 = getelementptr inbounds i8, ptr %0, i64 48
  %14 = load i64, ptr %13, align 8
  %15 = icmp ult i64 %14, 8
  tail call void @llvm.assume(i1 %15)
  br label %_ZNSt7__cxx1112basic_stringIDsSt11char_traitsIDsESaIDsEED2Ev.exit3

_ZNKSt7__cxx1112basic_stringIDsSt11char_traitsIDsESaIDsEE11_M_is_localEv.exit.i.i1: ; preds = %_ZNSt7__cxx1112basic_stringIDsSt11char_traitsIDsESaIDsEED2Ev.exit
  tail call void @_ZdlPv(ptr noundef %10) #19
  br label %_ZNSt7__cxx1112basic_stringIDsSt11char_traitsIDsESaIDsEED2Ev.exit3

_ZNSt7__cxx1112basic_stringIDsSt11char_traitsIDsESaIDsEED2Ev.exit3: ; preds = %_ZNKSt7__cxx1112basic_stringIDsSt11char_traitsIDsESaIDsEE11_M_is_localEv.exit.thread.i.i2, %_ZNKSt7__cxx1112basic_stringIDsSt11char_traitsIDsESaIDsEE11_M_is_localEv.exit.i.i1
  tail call void @_ZN4LIEF6ObjectD2Ev(ptr noundef nonnull align 8 dereferenceable(8) %0) #20
  ret void
}